
helloworld.elf:     file format elf32-avr

Sections:
Idx Name          Size      VMA       LMA       File off  Algn
  0 .data         0000000e  00800100  000009e2  00000a56  2**0
                  CONTENTS, ALLOC, LOAD, DATA
  1 .text         000009e2  00000000  00000000  00000074  2**1
                  CONTENTS, ALLOC, LOAD, READONLY, CODE
  2 .stab         00000378  00000000  00000000  00000a64  2**2
                  CONTENTS, READONLY, DEBUGGING
  3 .stabstr      00000071  00000000  00000000  00000ddc  2**0
                  CONTENTS, READONLY, DEBUGGING
  4 .debug_aranges 00000040  00000000  00000000  00000e4d  2**0
                  CONTENTS, READONLY, DEBUGGING
  5 .debug_pubnames 00000056  00000000  00000000  00000e8d  2**0
                  CONTENTS, READONLY, DEBUGGING
  6 .debug_info   000004bb  00000000  00000000  00000ee3  2**0
                  CONTENTS, READONLY, DEBUGGING
  7 .debug_abbrev 000001b1  00000000  00000000  0000139e  2**0
                  CONTENTS, READONLY, DEBUGGING
  8 .debug_line   0000024b  00000000  00000000  0000154f  2**0
                  CONTENTS, READONLY, DEBUGGING
  9 .debug_frame  00000050  00000000  00000000  0000179c  2**2
                  CONTENTS, READONLY, DEBUGGING
 10 .debug_str    0000011f  00000000  00000000  000017ec  2**0
                  CONTENTS, READONLY, DEBUGGING
 11 .debug_loc    00000026  00000000  00000000  0000190b  2**0
                  CONTENTS, READONLY, DEBUGGING
Disassembly of section .text:

00000000 <__vectors>:
   0:	0c 94 90 00 	jmp	0x120	; 0x120 <__ctors_end>
   4:	0c 94 ad 00 	jmp	0x15a	; 0x15a <__bad_interrupt>
   8:	0c 94 ad 00 	jmp	0x15a	; 0x15a <__bad_interrupt>
   c:	0c 94 ad 00 	jmp	0x15a	; 0x15a <__bad_interrupt>
  10:	0c 94 ad 00 	jmp	0x15a	; 0x15a <__bad_interrupt>
  14:	0c 94 ad 00 	jmp	0x15a	; 0x15a <__bad_interrupt>
  18:	0c 94 ad 00 	jmp	0x15a	; 0x15a <__bad_interrupt>
  1c:	0c 94 ad 00 	jmp	0x15a	; 0x15a <__bad_interrupt>
  20:	0c 94 ad 00 	jmp	0x15a	; 0x15a <__bad_interrupt>
  24:	0c 94 ad 00 	jmp	0x15a	; 0x15a <__bad_interrupt>
  28:	0c 94 ad 00 	jmp	0x15a	; 0x15a <__bad_interrupt>
  2c:	0c 94 ad 00 	jmp	0x15a	; 0x15a <__bad_interrupt>
  30:	0c 94 ad 00 	jmp	0x15a	; 0x15a <__bad_interrupt>
  34:	0c 94 ad 00 	jmp	0x15a	; 0x15a <__bad_interrupt>
  38:	0c 94 ad 00 	jmp	0x15a	; 0x15a <__bad_interrupt>
  3c:	0c 94 ad 00 	jmp	0x15a	; 0x15a <__bad_interrupt>
  40:	0c 94 ad 00 	jmp	0x15a	; 0x15a <__bad_interrupt>
  44:	0c 94 ad 00 	jmp	0x15a	; 0x15a <__bad_interrupt>
  48:	0c 94 ad 00 	jmp	0x15a	; 0x15a <__bad_interrupt>
  4c:	0c 94 ad 00 	jmp	0x15a	; 0x15a <__bad_interrupt>
  50:	0c 94 ad 00 	jmp	0x15a	; 0x15a <__bad_interrupt>
  54:	0c 94 ad 00 	jmp	0x15a	; 0x15a <__bad_interrupt>
  58:	0c 94 ad 00 	jmp	0x15a	; 0x15a <__bad_interrupt>
  5c:	0c 94 ad 00 	jmp	0x15a	; 0x15a <__bad_interrupt>
  60:	0c 94 ad 00 	jmp	0x15a	; 0x15a <__bad_interrupt>
  64:	0c 94 ad 00 	jmp	0x15a	; 0x15a <__bad_interrupt>
  68:	0c 94 ad 00 	jmp	0x15a	; 0x15a <__bad_interrupt>
  6c:	0c 94 ad 00 	jmp	0x15a	; 0x15a <__bad_interrupt>

00000070 <__c.1585>:
  70:	4b 6f 6e 69 65 63 0d 0a 00                          Koniec...

00000079 <__c.1583>:
  79:	33 32 3d 28 33 32 29 31 36 78 31 36 20 57 79 6e     32=(32)16x16 Wyn
  89:	69 6b 3a 20 25 6c 75 0d 0a 00                       ik: %lu...

00000093 <__c.1581>:
  93:	33 32 3d 31 36 78 31 36 20 57 79 6e 69 6b 3a 20     32=16x16 Wynik: 
  a3:	25 6c 75 0d 0a 00                                   %lu...

000000a9 <__c.1579>:
  a9:	28 33 32 29 31 36 78 31 36 20 57 79 6e 69 6b 3a     (32)16x16 Wynik:
  b9:	20 25 75 0d 0a 00                                    %u...

000000bf <__c.1577>:
  bf:	28 33 32 29 31 36 78 28 33 32 29 31 36 20 57 79     (32)16x(32)16 Wy
  cf:	6e 69 6b 3a 20 25 75 0d 0a 00                       nik: %u...

000000d9 <__c.1575>:
  d9:	28 33 32 29 28 31 36 78 31 36 29 20 57 79 6e 69     (32)(16x16) Wyni
  e9:	6b 3a 20 25 75 0d 0a 00                             k: %u...

000000f1 <__c.1573>:
  f1:	31 36 78 31 36 20 57 79 6e 69 6b 20 25 75 0d 0a     16x16 Wynik %u..
	...

00000102 <__c.1571>:
 102:	38 78 38 20 57 79 6e 69 6b 20 25 75 0d 0a 00        8x8 Wynik %u...

00000111 <__c.1569>:
 111:	48 65 6c 6c 6f 20 77 6f 72 6c 64 21 0d 0a 00        Hello world!...

00000120 <__ctors_end>:
 120:	11 24       	eor	r1, r1
 122:	1f be       	out	0x3f, r1	; 63
 124:	cf ef       	ldi	r28, 0xFF	; 255
 126:	d4 e0       	ldi	r29, 0x04	; 4
 128:	de bf       	out	0x3e, r29	; 62
 12a:	cd bf       	out	0x3d, r28	; 61

0000012c <__do_copy_data>:
 12c:	11 e0       	ldi	r17, 0x01	; 1
 12e:	a0 e0       	ldi	r26, 0x00	; 0
 130:	b1 e0       	ldi	r27, 0x01	; 1
 132:	e2 ee       	ldi	r30, 0xE2	; 226
 134:	f9 e0       	ldi	r31, 0x09	; 9
 136:	02 c0       	rjmp	.+4      	; 0x13c <.do_copy_data_start>

00000138 <.do_copy_data_loop>:
 138:	05 90       	lpm	r0, Z+
 13a:	0d 92       	st	X+, r0

0000013c <.do_copy_data_start>:
 13c:	ae 30       	cpi	r26, 0x0E	; 14
 13e:	b1 07       	cpc	r27, r17
 140:	d9 f7       	brne	.-10     	; 0x138 <.do_copy_data_loop>

00000142 <__do_clear_bss>:
 142:	11 e0       	ldi	r17, 0x01	; 1
 144:	ae e0       	ldi	r26, 0x0E	; 14
 146:	b1 e0       	ldi	r27, 0x01	; 1
 148:	01 c0       	rjmp	.+2      	; 0x14c <.do_clear_bss_start>

0000014a <.do_clear_bss_loop>:
 14a:	1d 92       	st	X+, r1

0000014c <.do_clear_bss_start>:
 14c:	ae 30       	cpi	r26, 0x0E	; 14
 14e:	b1 07       	cpc	r27, r17
 150:	e1 f7       	brne	.-8      	; 0x14a <.do_clear_bss_loop>
 152:	0e 94 af 00 	call	0x15e	; 0x15e <main>
 156:	0c 94 f0 04 	jmp	0x9e0	; 0x9e0 <_exit>

0000015a <__bad_interrupt>:
 15a:	0c 94 00 00 	jmp	0	; 0x0 <__vectors>

0000015e <main>:
fcheat_file fileRS = FCHEAT_STATIC_FDEVOPENWR(rs_put, rs_get);
FILE* fRS = (void*)&fileRS;

int main(void)
{
 15e:	0f 93       	push	r16
 160:	1f 93       	push	r17
 162:	cf 93       	push	r28
 164:	df 93       	push	r29
	uint8_t u8a, u8b;
	uint16_t u16a, u16b, u16c;
	uint32_t u32a;
	///////////////////////////////////////////////
	// Inicjacja portu szeregowego
	RS_SET_BAUD(DEF_BAUD); 
 166:	10 bc       	out	0x20, r1	; 32
 168:	87 e6       	ldi	r24, 0x67	; 103
 16a:	89 b9       	out	0x09, r24	; 9
	UCSR0C = 1<<URSEL0 | 1<<UCSZ01 | 1<<UCSZ00; 
 16c:	86 e8       	ldi	r24, 0x86	; 134
 16e:	80 bd       	out	0x20, r24	; 32
	UCSR0B = 1<<RXEN0 | 1<<TXEN0; 
 170:	88 e1       	ldi	r24, 0x18	; 24
 172:	8a b9       	out	0x0a, r24	; 10
	UCSR0A = 0;
 174:	1b b8       	out	0x0b, r1	; 11
	// Koniec inicjacji
	///////////////////////////////////////////////
	// Inicjacja funkcji dla domyœlnych strumieni we/wy
	//fRS = fdevopen(rs_put, rs_get, 0);
	
	fputs_P(PSTR("Hello world!\r\n"), fRS);
 176:	60 91 0c 01 	lds	r22, 0x010C
 17a:	70 91 0d 01 	lds	r23, 0x010D
 17e:	81 e1       	ldi	r24, 0x11	; 17
 180:	91 e0       	ldi	r25, 0x01	; 1
 182:	0e 94 8c 01 	call	0x318	; 0x318 <fputs_P>
	
	u8a = 100;
	u8b = 200;
	u8a = (u8b * u8a) / 100;
	fprintf_P(fRS, PSTR("8x8 Wynik %u\r\n"),(unsigned int)u8a);
 186:	88 ec       	ldi	r24, 0xC8	; 200
 188:	90 e0       	ldi	r25, 0x00	; 0
 18a:	9f 93       	push	r25
 18c:	8f 93       	push	r24
 18e:	82 e0       	ldi	r24, 0x02	; 2
 190:	91 e0       	ldi	r25, 0x01	; 1
 192:	9f 93       	push	r25
 194:	8f 93       	push	r24
 196:	80 91 0c 01 	lds	r24, 0x010C
 19a:	90 91 0d 01 	lds	r25, 0x010D
 19e:	9f 93       	push	r25
 1a0:	8f 93       	push	r24
 1a2:	0e 94 61 01 	call	0x2c2	; 0x2c2 <fprintf_P>
	
	u16a = 200;
	u16b = 600;
	u16a = (u16b * u16a) / 100;
	fprintf_P(fRS, PSTR("16x16 Wynik %u\r\n"),(unsigned int)u16c);
 1a6:	df 93       	push	r29
 1a8:	cf 93       	push	r28
 1aa:	81 ef       	ldi	r24, 0xF1	; 241
 1ac:	90 e0       	ldi	r25, 0x00	; 0
 1ae:	9f 93       	push	r25
 1b0:	8f 93       	push	r24
 1b2:	80 91 0c 01 	lds	r24, 0x010C
 1b6:	90 91 0d 01 	lds	r25, 0x010D
 1ba:	9f 93       	push	r25
 1bc:	8f 93       	push	r24
 1be:	0e 94 61 01 	call	0x2c2	; 0x2c2 <fprintf_P>
	
	u16c = (uint32_t)(u16a * u16b) / 10;
	fprintf_P(fRS, PSTR("(32)(16x16) Wynik: %u\r\n"), (unsigned int)u16c);
 1c2:	89 e1       	ldi	r24, 0x19	; 25
 1c4:	99 e1       	ldi	r25, 0x19	; 25
 1c6:	9f 93       	push	r25
 1c8:	8f 93       	push	r24
 1ca:	89 ed       	ldi	r24, 0xD9	; 217
 1cc:	90 e0       	ldi	r25, 0x00	; 0
 1ce:	9f 93       	push	r25
 1d0:	8f 93       	push	r24
 1d2:	80 91 0c 01 	lds	r24, 0x010C
 1d6:	90 91 0d 01 	lds	r25, 0x010D
 1da:	9f 93       	push	r25
 1dc:	8f 93       	push	r24
 1de:	0e 94 61 01 	call	0x2c2	; 0x2c2 <fprintf_P>
	
	u16c = ((uint32_t)u16a * (uint32_t)u16b) / 10;
	fprintf_P(fRS, PSTR("(32)16x(32)16 Wynik: %u\r\n"), (unsigned int)u16c);
 1e2:	00 e8       	ldi	r16, 0x80	; 128
 1e4:	1f e7       	ldi	r17, 0x7F	; 127
 1e6:	1f 93       	push	r17
 1e8:	0f 93       	push	r16
 1ea:	8f eb       	ldi	r24, 0xBF	; 191
 1ec:	90 e0       	ldi	r25, 0x00	; 0
 1ee:	9f 93       	push	r25
 1f0:	8f 93       	push	r24
 1f2:	80 91 0c 01 	lds	r24, 0x010C
 1f6:	90 91 0d 01 	lds	r25, 0x010D
 1fa:	9f 93       	push	r25
 1fc:	8f 93       	push	r24
 1fe:	0e 94 61 01 	call	0x2c2	; 0x2c2 <fprintf_P>
	
	u16c = ((uint32_t)u16a * u16b) / 10;
	fprintf_P(fRS, PSTR("(32)16x16 Wynik: %u\r\n"), (unsigned int)u16c);
 202:	1f 93       	push	r17
 204:	0f 93       	push	r16
 206:	89 ea       	ldi	r24, 0xA9	; 169
 208:	90 e0       	ldi	r25, 0x00	; 0
 20a:	9f 93       	push	r25
 20c:	8f 93       	push	r24
 20e:	80 91 0c 01 	lds	r24, 0x010C
 212:	90 91 0d 01 	lds	r25, 0x010D
 216:	9f 93       	push	r25
 218:	8f 93       	push	r24
 21a:	0e 94 61 01 	call	0x2c2	; 0x2c2 <fprintf_P>
	
	u32a = u16a * u16b;
	fprintf_P(fRS, PSTR("32=16x16 Wynik: %lu\r\n"), (unsigned long int)u32a);
 21e:	80 e0       	ldi	r24, 0x00	; 0
 220:	9b ef       	ldi	r25, 0xFB	; 251
 222:	a0 e0       	ldi	r26, 0x00	; 0
 224:	b0 e0       	ldi	r27, 0x00	; 0
 226:	bf 93       	push	r27
 228:	af 93       	push	r26
 22a:	9f 93       	push	r25
 22c:	8f 93       	push	r24
 22e:	83 e9       	ldi	r24, 0x93	; 147
 230:	90 e0       	ldi	r25, 0x00	; 0
 232:	9f 93       	push	r25
 234:	8f 93       	push	r24
 236:	80 91 0c 01 	lds	r24, 0x010C
 23a:	90 91 0d 01 	lds	r25, 0x010D
 23e:	9f 93       	push	r25
 240:	8f 93       	push	r24
 242:	0e 94 61 01 	call	0x2c2	; 0x2c2 <fprintf_P>
	
	u32a = (uint32_t)u16a * u16b;
	fprintf_P(fRS, PSTR("32=(32)16x16 Wynik: %lu\r\n"), (unsigned long int)u32a);
 246:	8d b7       	in	r24, 0x3d	; 61
 248:	9e b7       	in	r25, 0x3e	; 62
 24a:	86 96       	adiw	r24, 0x26	; 38
 24c:	0f b6       	in	r0, 0x3f	; 63
 24e:	f8 94       	cli
 250:	9e bf       	out	0x3e, r25	; 62
 252:	0f be       	out	0x3f, r0	; 63
 254:	8d bf       	out	0x3d, r24	; 61
 256:	80 e0       	ldi	r24, 0x00	; 0
 258:	9b ef       	ldi	r25, 0xFB	; 251
 25a:	a4 e0       	ldi	r26, 0x04	; 4
 25c:	b0 e0       	ldi	r27, 0x00	; 0
 25e:	bf 93       	push	r27
 260:	af 93       	push	r26
 262:	9f 93       	push	r25
 264:	8f 93       	push	r24
 266:	89 e7       	ldi	r24, 0x79	; 121
 268:	90 e0       	ldi	r25, 0x00	; 0
 26a:	9f 93       	push	r25
 26c:	8f 93       	push	r24
 26e:	80 91 0c 01 	lds	r24, 0x010C
 272:	90 91 0d 01 	lds	r25, 0x010D
 276:	9f 93       	push	r25
 278:	8f 93       	push	r24
 27a:	0e 94 61 01 	call	0x2c2	; 0x2c2 <fprintf_P>

	fputs_P(PSTR("Koniec\r\n"), fRS);
 27e:	60 91 0c 01 	lds	r22, 0x010C
 282:	70 91 0d 01 	lds	r23, 0x010D
 286:	80 e7       	ldi	r24, 0x70	; 112
 288:	90 e0       	ldi	r25, 0x00	; 0
 28a:	0e 94 8c 01 	call	0x318	; 0x318 <fputs_P>
 28e:	8d b7       	in	r24, 0x3d	; 61
 290:	9e b7       	in	r25, 0x3e	; 62
 292:	08 96       	adiw	r24, 0x08	; 8
 294:	0f b6       	in	r0, 0x3f	; 63
 296:	f8 94       	cli
 298:	9e bf       	out	0x3e, r25	; 62
 29a:	0f be       	out	0x3f, r0	; 63
 29c:	8d bf       	out	0x3d, r24	; 61
}
 29e:	80 e0       	ldi	r24, 0x00	; 0
 2a0:	90 e0       	ldi	r25, 0x00	; 0
 2a2:	df 91       	pop	r29
 2a4:	cf 91       	pop	r28
 2a6:	1f 91       	pop	r17
 2a8:	0f 91       	pop	r16
 2aa:	08 95       	ret

000002ac <rs_put>:

#include "rs.h"

int rs_put(char znak)
{
 2ac:	5d 9b       	sbis	0x0b, 5	; 11
 2ae:	fe cf       	rjmp	.-4      	; 0x2ac <rs_put>
	// Oczekiwanie a¿ bufor nadajnika jest pusty
	while(!(1<<UDRE0 & UCSR0A)) {}
	UDR0 = znak; 
 2b0:	8c b9       	out	0x0c, r24	; 12
	return 0;
}
 2b2:	80 e0       	ldi	r24, 0x00	; 0
 2b4:	90 e0       	ldi	r25, 0x00	; 0
 2b6:	08 95       	ret

000002b8 <rs_get>:

int rs_get(void)
{
 2b8:	5f 9b       	sbis	0x0b, 7	; 11
 2ba:	fe cf       	rjmp	.-4      	; 0x2b8 <rs_get>
	char znak; 
	// Oczekiwanie na pojawienie siê danej
	while(!(1<<RXC0 & UCSR0A)) {}
	znak = UDR0; 
 2bc:	8c b1       	in	r24, 0x0c	; 12
	return znak;
}
 2be:	99 27       	eor	r25, r25
 2c0:	08 95       	ret

000002c2 <fprintf_P>:
 2c2:	0f 93       	push	r16
 2c4:	1f 93       	push	r17
 2c6:	cf 93       	push	r28
 2c8:	df 93       	push	r29
 2ca:	cd b7       	in	r28, 0x3d	; 61
 2cc:	de b7       	in	r29, 0x3e	; 62
 2ce:	22 97       	sbiw	r28, 0x02	; 2
 2d0:	0f b6       	in	r0, 0x3f	; 63
 2d2:	f8 94       	cli
 2d4:	de bf       	out	0x3e, r29	; 62
 2d6:	0f be       	out	0x3f, r0	; 63
 2d8:	cd bf       	out	0x3d, r28	; 61
 2da:	09 85       	ldd	r16, Y+9	; 0x09
 2dc:	1a 85       	ldd	r17, Y+10	; 0x0a
 2de:	ae 01       	movw	r20, r28
 2e0:	43 5f       	subi	r20, 0xF3	; 243
 2e2:	5f 4f       	sbci	r21, 0xFF	; 255
 2e4:	5a 83       	std	Y+2, r21	; 0x02
 2e6:	49 83       	std	Y+1, r20	; 0x01
 2e8:	f8 01       	movw	r30, r16
 2ea:	83 81       	ldd	r24, Z+3	; 0x03
 2ec:	88 60       	ori	r24, 0x08	; 8
 2ee:	83 83       	std	Z+3, r24	; 0x03
 2f0:	6b 85       	ldd	r22, Y+11	; 0x0b
 2f2:	7c 85       	ldd	r23, Y+12	; 0x0c
 2f4:	c8 01       	movw	r24, r16
 2f6:	0e 94 b7 01 	call	0x36e	; 0x36e <vfprintf>
 2fa:	f8 01       	movw	r30, r16
 2fc:	23 81       	ldd	r18, Z+3	; 0x03
 2fe:	27 7f       	andi	r18, 0xF7	; 247
 300:	23 83       	std	Z+3, r18	; 0x03
 302:	22 96       	adiw	r28, 0x02	; 2
 304:	0f b6       	in	r0, 0x3f	; 63
 306:	f8 94       	cli
 308:	de bf       	out	0x3e, r29	; 62
 30a:	0f be       	out	0x3f, r0	; 63
 30c:	cd bf       	out	0x3d, r28	; 61
 30e:	df 91       	pop	r29
 310:	cf 91       	pop	r28
 312:	1f 91       	pop	r17
 314:	0f 91       	pop	r16
 316:	08 95       	ret

00000318 <fputs_P>:
 318:	ef 92       	push	r14
 31a:	ff 92       	push	r15
 31c:	0f 93       	push	r16
 31e:	1f 93       	push	r17
 320:	cf 93       	push	r28
 322:	df 93       	push	r29
 324:	ec 01       	movw	r28, r24
 326:	8b 01       	movw	r16, r22
 328:	fb 01       	movw	r30, r22
 32a:	83 81       	ldd	r24, Z+3	; 0x03
 32c:	81 fd       	sbrc	r24, 1
 32e:	04 c0       	rjmp	.+8      	; 0x338 <fputs_P+0x20>
 330:	9f ef       	ldi	r25, 0xFF	; 255
 332:	e9 2e       	mov	r14, r25
 334:	f9 2e       	mov	r15, r25
 336:	13 c0       	rjmp	.+38     	; 0x35e <fputs_P+0x46>
 338:	ee 24       	eor	r14, r14
 33a:	ff 24       	eor	r15, r15
 33c:	0c c0       	rjmp	.+24     	; 0x356 <fputs_P+0x3e>
 33e:	f8 01       	movw	r30, r16
 340:	20 85       	ldd	r18, Z+8	; 0x08
 342:	31 85       	ldd	r19, Z+9	; 0x09
 344:	b8 01       	movw	r22, r16
 346:	f9 01       	movw	r30, r18
 348:	09 95       	icall
 34a:	89 2b       	or	r24, r25
 34c:	19 f0       	breq	.+6      	; 0x354 <fputs_P+0x3c>
 34e:	8f ef       	ldi	r24, 0xFF	; 255
 350:	e8 2e       	mov	r14, r24
 352:	f8 2e       	mov	r15, r24
 354:	21 96       	adiw	r28, 0x01	; 1
 356:	fe 01       	movw	r30, r28
 358:	84 91       	lpm	r24, Z
 35a:	88 23       	and	r24, r24
 35c:	81 f7       	brne	.-32     	; 0x33e <fputs_P+0x26>
 35e:	c7 01       	movw	r24, r14
 360:	df 91       	pop	r29
 362:	cf 91       	pop	r28
 364:	1f 91       	pop	r17
 366:	0f 91       	pop	r16
 368:	ff 90       	pop	r15
 36a:	ef 90       	pop	r14
 36c:	08 95       	ret

0000036e <vfprintf>:
 36e:	2f 92       	push	r2
 370:	3f 92       	push	r3
 372:	4f 92       	push	r4
 374:	5f 92       	push	r5
 376:	6f 92       	push	r6
 378:	7f 92       	push	r7
 37a:	8f 92       	push	r8
 37c:	9f 92       	push	r9
 37e:	af 92       	push	r10
 380:	bf 92       	push	r11
 382:	cf 92       	push	r12
 384:	df 92       	push	r13
 386:	ef 92       	push	r14
 388:	ff 92       	push	r15
 38a:	0f 93       	push	r16
 38c:	1f 93       	push	r17
 38e:	cf 93       	push	r28
 390:	df 93       	push	r29
 392:	cd b7       	in	r28, 0x3d	; 61
 394:	de b7       	in	r29, 0x3e	; 62
 396:	64 97       	sbiw	r28, 0x14	; 20
 398:	0f b6       	in	r0, 0x3f	; 63
 39a:	f8 94       	cli
 39c:	de bf       	out	0x3e, r29	; 62
 39e:	0f be       	out	0x3f, r0	; 63
 3a0:	cd bf       	out	0x3d, r28	; 61
 3a2:	cc 24       	eor	r12, r12
 3a4:	dd 24       	eor	r13, r13
 3a6:	76 01       	movw	r14, r12
 3a8:	1c 01       	movw	r2, r24
 3aa:	7c 8b       	std	Y+20, r23	; 0x14
 3ac:	6b 8b       	std	Y+19, r22	; 0x13
 3ae:	2a 01       	movw	r4, r20
 3b0:	fc 01       	movw	r30, r24
 3b2:	17 82       	std	Z+7, r1	; 0x07
 3b4:	16 82       	std	Z+6, r1	; 0x06
 3b6:	83 81       	ldd	r24, Z+3	; 0x03
 3b8:	81 fd       	sbrc	r24, 1
 3ba:	03 c0       	rjmp	.+6      	; 0x3c2 <vfprintf+0x54>
 3bc:	8f ef       	ldi	r24, 0xFF	; 255
 3be:	9f ef       	ldi	r25, 0xFF	; 255
 3c0:	88 c2       	rjmp	.+1296   	; 0x8d2 <__stack+0x3d3>
 3c2:	aa 24       	eor	r10, r10
 3c4:	bb 24       	eor	r11, r11
 3c6:	72 c2       	rjmp	.+1252   	; 0x8ac <__stack+0x3ad>
 3c8:	a0 fe       	sbrs	r10, 0
 3ca:	57 c2       	rjmp	.+1198   	; 0x87a <__stack+0x37b>
 3cc:	8a 89       	ldd	r24, Y+18	; 0x12
 3ce:	80 53       	subi	r24, 0x30	; 48
 3d0:	8a 30       	cpi	r24, 0x0A	; 10
 3d2:	e8 f4       	brcc	.+58     	; 0x40e <vfprintf+0xa0>
 3d4:	fa 89       	ldd	r31, Y+18	; 0x12
 3d6:	f0 33       	cpi	r31, 0x30	; 48
 3d8:	41 f4       	brne	.+16     	; 0x3ea <vfprintf+0x7c>
 3da:	2d 85       	ldd	r18, Y+13	; 0x0d
 3dc:	22 23       	and	r18, r18
 3de:	29 f4       	brne	.+10     	; 0x3ea <vfprintf+0x7c>
 3e0:	a3 fc       	sbrc	r10, 3
 3e2:	03 c0       	rjmp	.+6      	; 0x3ea <vfprintf+0x7c>
 3e4:	80 e0       	ldi	r24, 0x00	; 0
 3e6:	91 e0       	ldi	r25, 0x01	; 1
 3e8:	6f c0       	rjmp	.+222    	; 0x4c8 <vfprintf+0x15a>
 3ea:	8a e0       	ldi	r24, 0x0A	; 10
 3ec:	ed 85       	ldd	r30, Y+13	; 0x0d
 3ee:	e8 02       	muls	r30, r24
 3f0:	c0 01       	movw	r24, r0
 3f2:	11 24       	eor	r1, r1
 3f4:	fa 89       	ldd	r31, Y+18	; 0x12
 3f6:	f8 0f       	add	r31, r24
 3f8:	f0 53       	subi	r31, 0x30	; 48
 3fa:	fd 87       	std	Y+13, r31	; 0x0d
 3fc:	f7 ff       	sbrs	r31, 7
 3fe:	02 c0       	rjmp	.+4      	; 0x404 <vfprintf+0x96>
 400:	2f e7       	ldi	r18, 0x7F	; 127
 402:	2d 87       	std	Y+13, r18	; 0x0d
 404:	a3 fc       	sbrc	r10, 3
 406:	4c c2       	rjmp	.+1176   	; 0x8a0 <__stack+0x3a1>
 408:	3d 85       	ldd	r19, Y+13	; 0x0d
 40a:	3e 87       	std	Y+14, r19	; 0x0e
 40c:	49 c2       	rjmp	.+1170   	; 0x8a0 <__stack+0x3a1>
 40e:	c5 01       	movw	r24, r10
 410:	88 70       	andi	r24, 0x08	; 8
 412:	90 70       	andi	r25, 0x00	; 0
 414:	a3 fe       	sbrs	r10, 3
 416:	05 c0       	rjmp	.+10     	; 0x422 <vfprintf+0xb4>
 418:	ed 85       	ldd	r30, Y+13	; 0x0d
 41a:	ee 23       	and	r30, r30
 41c:	11 f4       	brne	.+4      	; 0x422 <vfprintf+0xb4>
 41e:	f1 e0       	ldi	r31, 0x01	; 1
 420:	fd 87       	std	Y+13, r31	; 0x0d
 422:	2a 89       	ldd	r18, Y+18	; 0x12
 424:	28 36       	cpi	r18, 0x68	; 104
 426:	24 f5       	brge	.+72     	; 0x470 <vfprintf+0x102>
 428:	25 36       	cpi	r18, 0x65	; 101
 42a:	0c f0       	brlt	.+2      	; 0x42e <vfprintf+0xc0>
 42c:	5b c0       	rjmp	.+182    	; 0x4e4 <vfprintf+0x176>
 42e:	23 35       	cpi	r18, 0x53	; 83
 430:	09 f4       	brne	.+2      	; 0x434 <vfprintf+0xc6>
 432:	80 c0       	rjmp	.+256    	; 0x534 <__stack+0x35>
 434:	24 35       	cpi	r18, 0x54	; 84
 436:	8c f4       	brge	.+34     	; 0x45a <vfprintf+0xec>
 438:	2b 32       	cpi	r18, 0x2B	; 43
 43a:	c1 f1       	breq	.+112    	; 0x4ac <vfprintf+0x13e>
 43c:	2c 32       	cpi	r18, 0x2C	; 44
 43e:	34 f4       	brge	.+12     	; 0x44c <vfprintf+0xde>
 440:	20 32       	cpi	r18, 0x20	; 32
 442:	c1 f1       	breq	.+112    	; 0x4b4 <vfprintf+0x146>
 444:	23 32       	cpi	r18, 0x23	; 35
 446:	09 f0       	breq	.+2      	; 0x44a <vfprintf+0xdc>
 448:	0d c2       	rjmp	.+1050   	; 0x864 <__stack+0x365>
 44a:	3c c0       	rjmp	.+120    	; 0x4c4 <vfprintf+0x156>
 44c:	3a 89       	ldd	r19, Y+18	; 0x12
 44e:	3d 32       	cpi	r19, 0x2D	; 45
 450:	b1 f1       	breq	.+108    	; 0x4be <vfprintf+0x150>
 452:	3e 32       	cpi	r19, 0x2E	; 46
 454:	09 f0       	breq	.+2      	; 0x458 <vfprintf+0xea>
 456:	06 c2       	rjmp	.+1036   	; 0x864 <__stack+0x365>
 458:	3a c0       	rjmp	.+116    	; 0x4ce <vfprintf+0x160>
 45a:	8a 89       	ldd	r24, Y+18	; 0x12
 45c:	83 36       	cpi	r24, 0x63	; 99
 45e:	09 f4       	brne	.+2      	; 0x462 <vfprintf+0xf4>
 460:	49 c0       	rjmp	.+146    	; 0x4f4 <vfprintf+0x186>
 462:	84 36       	cpi	r24, 0x64	; 100
 464:	0c f0       	brlt	.+2      	; 0x468 <vfprintf+0xfa>
 466:	81 c0       	rjmp	.+258    	; 0x56a <__stack+0x6b>
 468:	88 35       	cpi	r24, 0x58	; 88
 46a:	09 f0       	breq	.+2      	; 0x46e <vfprintf+0x100>
 46c:	fb c1       	rjmp	.+1014   	; 0x864 <__stack+0x365>
 46e:	1b c0       	rjmp	.+54     	; 0x4a6 <vfprintf+0x138>
 470:	ea 89       	ldd	r30, Y+18	; 0x12
 472:	e0 37       	cpi	r30, 0x70	; 112
 474:	09 f4       	brne	.+2      	; 0x478 <vfprintf+0x10a>
 476:	a3 c0       	rjmp	.+326    	; 0x5be <__stack+0xbf>
 478:	e1 37       	cpi	r30, 0x71	; 113
 47a:	44 f4       	brge	.+16     	; 0x48c <vfprintf+0x11e>
 47c:	ec 36       	cpi	r30, 0x6C	; 108
 47e:	69 f1       	breq	.+90     	; 0x4da <vfprintf+0x16c>
 480:	ef 36       	cpi	r30, 0x6F	; 111
 482:	71 f0       	breq	.+28     	; 0x4a0 <vfprintf+0x132>
 484:	e9 36       	cpi	r30, 0x69	; 105
 486:	09 f0       	breq	.+2      	; 0x48a <vfprintf+0x11c>
 488:	ed c1       	rjmp	.+986    	; 0x864 <__stack+0x365>
 48a:	6f c0       	rjmp	.+222    	; 0x56a <__stack+0x6b>
 48c:	fa 89       	ldd	r31, Y+18	; 0x12
 48e:	f5 37       	cpi	r31, 0x75	; 117
 490:	09 f4       	brne	.+2      	; 0x494 <vfprintf+0x126>
 492:	9d c0       	rjmp	.+314    	; 0x5ce <__stack+0xcf>
 494:	f8 37       	cpi	r31, 0x78	; 120
 496:	39 f0       	breq	.+14     	; 0x4a6 <vfprintf+0x138>
 498:	f3 37       	cpi	r31, 0x73	; 115
 49a:	09 f0       	breq	.+2      	; 0x49e <vfprintf+0x130>
 49c:	e3 c1       	rjmp	.+966    	; 0x864 <__stack+0x365>
 49e:	34 c0       	rjmp	.+104    	; 0x508 <__stack+0x9>
 4a0:	28 e0       	ldi	r18, 0x08	; 8
 4a2:	29 8b       	std	Y+17, r18	; 0x11
 4a4:	94 c0       	rjmp	.+296    	; 0x5ce <__stack+0xcf>
 4a6:	30 e1       	ldi	r19, 0x10	; 16
 4a8:	39 8b       	std	Y+17, r19	; 0x11
 4aa:	91 c0       	rjmp	.+290    	; 0x5ce <__stack+0xcf>
 4ac:	80 e1       	ldi	r24, 0x10	; 16
 4ae:	90 e0       	ldi	r25, 0x00	; 0
 4b0:	a8 2a       	or	r10, r24
 4b2:	b9 2a       	or	r11, r25
 4b4:	e0 e2       	ldi	r30, 0x20	; 32
 4b6:	f0 e0       	ldi	r31, 0x00	; 0
 4b8:	ae 2a       	or	r10, r30
 4ba:	bf 2a       	or	r11, r31
 4bc:	f1 c1       	rjmp	.+994    	; 0x8a0 <__stack+0x3a1>
 4be:	20 e8       	ldi	r18, 0x80	; 128
 4c0:	30 e0       	ldi	r19, 0x00	; 0
 4c2:	0d c0       	rjmp	.+26     	; 0x4de <vfprintf+0x170>
 4c4:	80 e4       	ldi	r24, 0x40	; 64
 4c6:	90 e0       	ldi	r25, 0x00	; 0
 4c8:	a8 2a       	or	r10, r24
 4ca:	b9 2a       	or	r11, r25
 4cc:	e9 c1       	rjmp	.+978    	; 0x8a0 <__stack+0x3a1>
 4ce:	e8 e0       	ldi	r30, 0x08	; 8
 4d0:	f0 e0       	ldi	r31, 0x00	; 0
 4d2:	ae 2a       	or	r10, r30
 4d4:	bf 2a       	or	r11, r31
 4d6:	1d 86       	std	Y+13, r1	; 0x0d
 4d8:	e3 c1       	rjmp	.+966    	; 0x8a0 <__stack+0x3a1>
 4da:	24 e0       	ldi	r18, 0x04	; 4
 4dc:	30 e0       	ldi	r19, 0x00	; 0
 4de:	a2 2a       	or	r10, r18
 4e0:	b3 2a       	or	r11, r19
 4e2:	de c1       	rjmp	.+956    	; 0x8a0 <__stack+0x3a1>
 4e4:	4f e3       	ldi	r20, 0x3F	; 63
 4e6:	c4 2e       	mov	r12, r20
 4e8:	3e 85       	ldd	r19, Y+14	; 0x0e
 4ea:	31 50       	subi	r19, 0x01	; 1
 4ec:	3e 87       	std	Y+14, r19	; 0x0e
 4ee:	83 e6       	ldi	r24, 0x63	; 99
 4f0:	8a 8b       	std	Y+18, r24	; 0x12
 4f2:	44 c1       	rjmp	.+648    	; 0x77c <__stack+0x27d>
 4f4:	f2 01       	movw	r30, r4
 4f6:	c0 80       	ld	r12, Z
 4f8:	fe 85       	ldd	r31, Y+14	; 0x0e
 4fa:	f1 50       	subi	r31, 0x01	; 1
 4fc:	fe 87       	std	Y+14, r31	; 0x0e
 4fe:	22 e0       	ldi	r18, 0x02	; 2
 500:	30 e0       	ldi	r19, 0x00	; 0
 502:	42 0e       	add	r4, r18
 504:	53 1e       	adc	r5, r19
 506:	3a c1       	rjmp	.+628    	; 0x77c <__stack+0x27d>
 508:	f2 01       	movw	r30, r4
 50a:	c0 80       	ld	r12, Z
 50c:	d1 80       	ldd	r13, Z+1	; 0x01
 50e:	89 2b       	or	r24, r25
 510:	49 f0       	breq	.+18     	; 0x524 <__stack+0x25>
 512:	fd 85       	ldd	r31, Y+13	; 0x0d
 514:	6f 2f       	mov	r22, r31
 516:	77 27       	eor	r23, r23
 518:	67 fd       	sbrc	r22, 7
 51a:	70 95       	com	r23
 51c:	c6 01       	movw	r24, r12
 51e:	0e 94 96 04 	call	0x92c	; 0x92c <strnlen>
 522:	19 c0       	rjmp	.+50     	; 0x556 <__stack+0x57>
 524:	f6 01       	movw	r30, r12
 526:	01 90       	ld	r0, Z+
 528:	00 20       	and	r0, r0
 52a:	e9 f7       	brne	.-6      	; 0x526 <__stack+0x27>
 52c:	31 97       	sbiw	r30, 0x01	; 1
 52e:	ec 19       	sub	r30, r12
 530:	e9 8b       	std	Y+17, r30	; 0x11
 532:	12 c0       	rjmp	.+36     	; 0x558 <__stack+0x59>
 534:	f2 01       	movw	r30, r4
 536:	c0 80       	ld	r12, Z
 538:	d1 80       	ldd	r13, Z+1	; 0x01
 53a:	89 2b       	or	r24, r25
 53c:	49 f0       	breq	.+18     	; 0x550 <__stack+0x51>
 53e:	fd 85       	ldd	r31, Y+13	; 0x0d
 540:	6f 2f       	mov	r22, r31
 542:	77 27       	eor	r23, r23
 544:	67 fd       	sbrc	r22, 7
 546:	70 95       	com	r23
 548:	c6 01       	movw	r24, r12
 54a:	0e 94 8b 04 	call	0x916	; 0x916 <strnlen_P>
 54e:	03 c0       	rjmp	.+6      	; 0x556 <__stack+0x57>
 550:	c6 01       	movw	r24, r12
 552:	0e 94 82 04 	call	0x904	; 0x904 <strlen_P>
 556:	89 8b       	std	Y+17, r24	; 0x11
 558:	22 e0       	ldi	r18, 0x02	; 2
 55a:	30 e0       	ldi	r19, 0x00	; 0
 55c:	42 0e       	add	r4, r18
 55e:	53 1e       	adc	r5, r19
 560:	3e 85       	ldd	r19, Y+14	; 0x0e
 562:	89 89       	ldd	r24, Y+17	; 0x11
 564:	38 1b       	sub	r19, r24
 566:	3e 87       	std	Y+14, r19	; 0x0e
 568:	09 c1       	rjmp	.+530    	; 0x77c <__stack+0x27d>
 56a:	a2 fe       	sbrs	r10, 2
 56c:	08 c0       	rjmp	.+16     	; 0x57e <__stack+0x7f>
 56e:	f2 01       	movw	r30, r4
 570:	80 81       	ld	r24, Z
 572:	91 81       	ldd	r25, Z+1	; 0x01
 574:	a2 81       	ldd	r26, Z+2	; 0x02
 576:	b3 81       	ldd	r27, Z+3	; 0x03
 578:	24 e0       	ldi	r18, 0x04	; 4
 57a:	30 e0       	ldi	r19, 0x00	; 0
 57c:	09 c0       	rjmp	.+18     	; 0x590 <__stack+0x91>
 57e:	f2 01       	movw	r30, r4
 580:	80 81       	ld	r24, Z
 582:	91 81       	ldd	r25, Z+1	; 0x01
 584:	aa 27       	eor	r26, r26
 586:	97 fd       	sbrc	r25, 7
 588:	a0 95       	com	r26
 58a:	ba 2f       	mov	r27, r26
 58c:	22 e0       	ldi	r18, 0x02	; 2
 58e:	30 e0       	ldi	r19, 0x00	; 0
 590:	42 0e       	add	r4, r18
 592:	53 1e       	adc	r5, r19
 594:	6c 01       	movw	r12, r24
 596:	7d 01       	movw	r14, r26
 598:	b7 ff       	sbrs	r27, 7
 59a:	0c c0       	rjmp	.+24     	; 0x5b4 <__stack+0xb5>
 59c:	82 e0       	ldi	r24, 0x02	; 2
 59e:	90 e0       	ldi	r25, 0x00	; 0
 5a0:	a8 2a       	or	r10, r24
 5a2:	b9 2a       	or	r11, r25
 5a4:	f0 94       	com	r15
 5a6:	e0 94       	com	r14
 5a8:	d0 94       	com	r13
 5aa:	c0 94       	com	r12
 5ac:	c1 1c       	adc	r12, r1
 5ae:	d1 1c       	adc	r13, r1
 5b0:	e1 1c       	adc	r14, r1
 5b2:	f1 1c       	adc	r15, r1
 5b4:	ef eb       	ldi	r30, 0xBF	; 191
 5b6:	ff ef       	ldi	r31, 0xFF	; 255
 5b8:	ae 22       	and	r10, r30
 5ba:	bf 22       	and	r11, r31
 5bc:	21 c0       	rjmp	.+66     	; 0x600 <__stack+0x101>
 5be:	20 e4       	ldi	r18, 0x40	; 64
 5c0:	30 e0       	ldi	r19, 0x00	; 0
 5c2:	a2 2a       	or	r10, r18
 5c4:	b3 2a       	or	r11, r19
 5c6:	38 e7       	ldi	r19, 0x78	; 120
 5c8:	3a 8b       	std	Y+18, r19	; 0x12
 5ca:	80 e1       	ldi	r24, 0x10	; 16
 5cc:	89 8b       	std	Y+17, r24	; 0x11
 5ce:	a2 fe       	sbrs	r10, 2
 5d0:	08 c0       	rjmp	.+16     	; 0x5e2 <__stack+0xe3>
 5d2:	f2 01       	movw	r30, r4
 5d4:	80 81       	ld	r24, Z
 5d6:	91 81       	ldd	r25, Z+1	; 0x01
 5d8:	a2 81       	ldd	r26, Z+2	; 0x02
 5da:	b3 81       	ldd	r27, Z+3	; 0x03
 5dc:	24 e0       	ldi	r18, 0x04	; 4
 5de:	30 e0       	ldi	r19, 0x00	; 0
 5e0:	07 c0       	rjmp	.+14     	; 0x5f0 <__stack+0xf1>
 5e2:	f2 01       	movw	r30, r4
 5e4:	80 81       	ld	r24, Z
 5e6:	91 81       	ldd	r25, Z+1	; 0x01
 5e8:	aa 27       	eor	r26, r26
 5ea:	bb 27       	eor	r27, r27
 5ec:	22 e0       	ldi	r18, 0x02	; 2
 5ee:	30 e0       	ldi	r19, 0x00	; 0
 5f0:	42 0e       	add	r4, r18
 5f2:	53 1e       	adc	r5, r19
 5f4:	6c 01       	movw	r12, r24
 5f6:	7d 01       	movw	r14, r26
 5f8:	8f ec       	ldi	r24, 0xCF	; 207
 5fa:	9f ef       	ldi	r25, 0xFF	; 255
 5fc:	a8 22       	and	r10, r24
 5fe:	b9 22       	and	r11, r25
 600:	87 01       	movw	r16, r14
 602:	76 01       	movw	r14, r12
 604:	fe 01       	movw	r30, r28
 606:	31 96       	adiw	r30, 0x01	; 1
 608:	f8 8b       	std	Y+16, r31	; 0x10
 60a:	ef 87       	std	Y+15, r30	; 0x0f
 60c:	f9 89       	ldd	r31, Y+17	; 0x11
 60e:	6f 2e       	mov	r6, r31
 610:	77 24       	eor	r7, r7
 612:	88 24       	eor	r8, r8
 614:	99 24       	eor	r9, r9
 616:	c8 01       	movw	r24, r16
 618:	b7 01       	movw	r22, r14
 61a:	a4 01       	movw	r20, r8
 61c:	93 01       	movw	r18, r6
 61e:	0e 94 ce 04 	call	0x99c	; 0x99c <__udivmodsi4>
 622:	6a 30       	cpi	r22, 0x0A	; 10
 624:	24 f0       	brlt	.+8      	; 0x62e <__stack+0x12f>
 626:	2a 89       	ldd	r18, Y+18	; 0x12
 628:	62 0f       	add	r22, r18
 62a:	61 52       	subi	r22, 0x21	; 33
 62c:	01 c0       	rjmp	.+2      	; 0x630 <__stack+0x131>
 62e:	60 5d       	subi	r22, 0xD0	; 208
 630:	ef 85       	ldd	r30, Y+15	; 0x0f
 632:	f8 89       	ldd	r31, Y+16	; 0x10
 634:	61 93       	st	Z+, r22
 636:	f8 8b       	std	Y+16, r31	; 0x10
 638:	ef 87       	std	Y+15, r30	; 0x0f
 63a:	c8 01       	movw	r24, r16
 63c:	b7 01       	movw	r22, r14
 63e:	a4 01       	movw	r20, r8
 640:	93 01       	movw	r18, r6
 642:	0e 94 ce 04 	call	0x99c	; 0x99c <__udivmodsi4>
 646:	79 01       	movw	r14, r18
 648:	8a 01       	movw	r16, r20
 64a:	21 15       	cp	r18, r1
 64c:	31 05       	cpc	r19, r1
 64e:	41 05       	cpc	r20, r1
 650:	51 05       	cpc	r21, r1
 652:	09 f7       	brne	.-62     	; 0x616 <__stack+0x117>
 654:	cc 24       	eor	r12, r12
 656:	dd 24       	eor	r13, r13
 658:	76 01       	movw	r14, r12
 65a:	ce 01       	movw	r24, r28
 65c:	01 96       	adiw	r24, 0x01	; 1
 65e:	cf 84       	ldd	r12, Y+15	; 0x0f
 660:	c8 1a       	sub	r12, r24
 662:	c5 01       	movw	r24, r10
 664:	82 73       	andi	r24, 0x32	; 50
 666:	90 70       	andi	r25, 0x00	; 0
 668:	89 2b       	or	r24, r25
 66a:	19 f0       	breq	.+6      	; 0x672 <__stack+0x173>
 66c:	fe 85       	ldd	r31, Y+14	; 0x0e
 66e:	f1 50       	subi	r31, 0x01	; 1
 670:	fe 87       	std	Y+14, r31	; 0x0e
 672:	a6 fe       	sbrs	r10, 6
 674:	09 c0       	rjmp	.+18     	; 0x688 <__stack+0x189>
 676:	29 89       	ldd	r18, Y+17	; 0x11
 678:	20 31       	cpi	r18, 0x10	; 16
 67a:	11 f4       	brne	.+4      	; 0x680 <__stack+0x181>
 67c:	82 e0       	ldi	r24, 0x02	; 2
 67e:	01 c0       	rjmp	.+2      	; 0x682 <__stack+0x183>
 680:	81 e0       	ldi	r24, 0x01	; 1
 682:	3e 85       	ldd	r19, Y+14	; 0x0e
 684:	38 1b       	sub	r19, r24
 686:	3e 87       	std	Y+14, r19	; 0x0e
 688:	38 e0       	ldi	r19, 0x08	; 8
 68a:	83 2e       	mov	r8, r19
 68c:	91 2c       	mov	r9, r1
 68e:	8a 20       	and	r8, r10
 690:	9b 20       	and	r9, r11
 692:	a3 fe       	sbrs	r10, 3
 694:	1b c0       	rjmp	.+54     	; 0x6cc <__stack+0x1cd>
 696:	8d 85       	ldd	r24, Y+13	; 0x0d
 698:	28 2f       	mov	r18, r24
 69a:	33 27       	eor	r19, r19
 69c:	27 fd       	sbrc	r18, 7
 69e:	30 95       	com	r19
 6a0:	8c 2d       	mov	r24, r12
 6a2:	99 27       	eor	r25, r25
 6a4:	82 17       	cp	r24, r18
 6a6:	93 07       	cpc	r25, r19
 6a8:	54 f0       	brlt	.+20     	; 0x6be <__stack+0x1bf>
 6aa:	e7 ef       	ldi	r30, 0xF7	; 247
 6ac:	ff ef       	ldi	r31, 0xFF	; 255
 6ae:	ae 22       	and	r10, r30
 6b0:	bf 22       	and	r11, r31
 6b2:	28 e0       	ldi	r18, 0x08	; 8
 6b4:	82 2e       	mov	r8, r18
 6b6:	91 2c       	mov	r9, r1
 6b8:	8a 20       	and	r8, r10
 6ba:	9b 20       	and	r9, r11
 6bc:	07 c0       	rjmp	.+14     	; 0x6cc <__stack+0x1cd>
 6be:	fd 85       	ldd	r31, Y+13	; 0x0d
 6c0:	fc 19       	sub	r31, r12
 6c2:	fd 87       	std	Y+13, r31	; 0x0d
 6c4:	2e 85       	ldd	r18, Y+14	; 0x0e
 6c6:	2f 1b       	sub	r18, r31
 6c8:	2e 87       	std	Y+14, r18	; 0x0e
 6ca:	03 c0       	rjmp	.+6      	; 0x6d2 <__stack+0x1d3>
 6cc:	3e 85       	ldd	r19, Y+14	; 0x0e
 6ce:	3c 19       	sub	r19, r12
 6d0:	3e 87       	std	Y+14, r19	; 0x0e
 6d2:	c5 01       	movw	r24, r10
 6d4:	80 78       	andi	r24, 0x80	; 128
 6d6:	91 70       	andi	r25, 0x01	; 1
 6d8:	89 2b       	or	r24, r25
 6da:	69 f4       	brne	.+26     	; 0x6f6 <__stack+0x1f7>
 6dc:	8e 85       	ldd	r24, Y+14	; 0x0e
 6de:	06 c0       	rjmp	.+12     	; 0x6ec <__stack+0x1ed>
 6e0:	b1 01       	movw	r22, r2
 6e2:	80 e2       	ldi	r24, 0x20	; 32
 6e4:	90 e0       	ldi	r25, 0x00	; 0
 6e6:	0e 94 a1 04 	call	0x942	; 0x942 <fputc>
 6ea:	81 2f       	mov	r24, r17
 6ec:	18 2f       	mov	r17, r24
 6ee:	11 50       	subi	r17, 0x01	; 1
 6f0:	18 16       	cp	r1, r24
 6f2:	b4 f3       	brlt	.-20     	; 0x6e0 <__stack+0x1e1>
 6f4:	1e 87       	std	Y+14, r17	; 0x0e
 6f6:	a1 fe       	sbrs	r10, 1
 6f8:	04 c0       	rjmp	.+8      	; 0x702 <__stack+0x203>
 6fa:	b1 01       	movw	r22, r2
 6fc:	8d e2       	ldi	r24, 0x2D	; 45
 6fe:	90 e0       	ldi	r25, 0x00	; 0
 700:	0b c0       	rjmp	.+22     	; 0x718 <__stack+0x219>
 702:	a4 fe       	sbrs	r10, 4
 704:	04 c0       	rjmp	.+8      	; 0x70e <__stack+0x20f>
 706:	b1 01       	movw	r22, r2
 708:	8b e2       	ldi	r24, 0x2B	; 43
 70a:	90 e0       	ldi	r25, 0x00	; 0
 70c:	05 c0       	rjmp	.+10     	; 0x718 <__stack+0x219>
 70e:	a5 fe       	sbrs	r10, 5
 710:	05 c0       	rjmp	.+10     	; 0x71c <__stack+0x21d>
 712:	b1 01       	movw	r22, r2
 714:	80 e2       	ldi	r24, 0x20	; 32
 716:	90 e0       	ldi	r25, 0x00	; 0
 718:	0e 94 a1 04 	call	0x942	; 0x942 <fputc>
 71c:	a6 fe       	sbrs	r10, 6
 71e:	10 c0       	rjmp	.+32     	; 0x740 <__stack+0x241>
 720:	b1 01       	movw	r22, r2
 722:	80 e3       	ldi	r24, 0x30	; 48
 724:	90 e0       	ldi	r25, 0x00	; 0
 726:	0e 94 a1 04 	call	0x942	; 0x942 <fputc>
 72a:	89 89       	ldd	r24, Y+17	; 0x11
 72c:	80 31       	cpi	r24, 0x10	; 16
 72e:	41 f4       	brne	.+16     	; 0x740 <__stack+0x241>
 730:	b1 01       	movw	r22, r2
 732:	ea 89       	ldd	r30, Y+18	; 0x12
 734:	8e 2f       	mov	r24, r30
 736:	99 27       	eor	r25, r25
 738:	87 fd       	sbrc	r24, 7
 73a:	90 95       	com	r25
 73c:	0e 94 a1 04 	call	0x942	; 0x942 <fputc>
 740:	b0 fe       	sbrs	r11, 0
 742:	0d c0       	rjmp	.+26     	; 0x75e <__stack+0x25f>
 744:	8e 85       	ldd	r24, Y+14	; 0x0e
 746:	06 c0       	rjmp	.+12     	; 0x754 <__stack+0x255>
 748:	b1 01       	movw	r22, r2
 74a:	80 e3       	ldi	r24, 0x30	; 48
 74c:	90 e0       	ldi	r25, 0x00	; 0
 74e:	0e 94 a1 04 	call	0x942	; 0x942 <fputc>
 752:	81 2f       	mov	r24, r17
 754:	18 2f       	mov	r17, r24
 756:	11 50       	subi	r17, 0x01	; 1
 758:	18 16       	cp	r1, r24
 75a:	b4 f3       	brlt	.-20     	; 0x748 <__stack+0x249>
 75c:	1e 87       	std	Y+14, r17	; 0x0e
 75e:	89 28       	or	r8, r9
 760:	69 f0       	breq	.+26     	; 0x77c <__stack+0x27d>
 762:	2d 85       	ldd	r18, Y+13	; 0x0d
 764:	06 c0       	rjmp	.+12     	; 0x772 <__stack+0x273>
 766:	b1 01       	movw	r22, r2
 768:	80 e3       	ldi	r24, 0x30	; 48
 76a:	90 e0       	ldi	r25, 0x00	; 0
 76c:	0e 94 a1 04 	call	0x942	; 0x942 <fputc>
 770:	21 2f       	mov	r18, r17
 772:	12 2f       	mov	r17, r18
 774:	11 50       	subi	r17, 0x01	; 1
 776:	12 16       	cp	r1, r18
 778:	b4 f3       	brlt	.-20     	; 0x766 <__stack+0x267>
 77a:	1d 87       	std	Y+13, r17	; 0x0d
 77c:	90 e8       	ldi	r25, 0x80	; 128
 77e:	69 2e       	mov	r6, r25
 780:	71 2c       	mov	r7, r1
 782:	6a 20       	and	r6, r10
 784:	7b 20       	and	r7, r11
 786:	a7 fc       	sbrc	r10, 7
 788:	0d c0       	rjmp	.+26     	; 0x7a4 <__stack+0x2a5>
 78a:	8e 85       	ldd	r24, Y+14	; 0x0e
 78c:	06 c0       	rjmp	.+12     	; 0x79a <__stack+0x29b>
 78e:	b1 01       	movw	r22, r2
 790:	80 e2       	ldi	r24, 0x20	; 32
 792:	90 e0       	ldi	r25, 0x00	; 0
 794:	0e 94 a1 04 	call	0x942	; 0x942 <fputc>
 798:	81 2f       	mov	r24, r17
 79a:	18 2f       	mov	r17, r24
 79c:	11 50       	subi	r17, 0x01	; 1
 79e:	18 16       	cp	r1, r24
 7a0:	b4 f3       	brlt	.-20     	; 0x78e <__stack+0x28f>
 7a2:	1e 87       	std	Y+14, r17	; 0x0e
 7a4:	fa 89       	ldd	r31, Y+18	; 0x12
 7a6:	f3 36       	cpi	r31, 0x63	; 99
 7a8:	41 f4       	brne	.+16     	; 0x7ba <__stack+0x2bb>
 7aa:	b1 01       	movw	r22, r2
 7ac:	8c 2d       	mov	r24, r12
 7ae:	99 27       	eor	r25, r25
 7b0:	87 fd       	sbrc	r24, 7
 7b2:	90 95       	com	r25
 7b4:	0e 94 a1 04 	call	0x942	; 0x942 <fputc>
 7b8:	45 c0       	rjmp	.+138    	; 0x844 <__stack+0x345>
 7ba:	2a 89       	ldd	r18, Y+18	; 0x12
 7bc:	23 37       	cpi	r18, 0x73	; 115
 7be:	b1 f4       	brne	.+44     	; 0x7ec <__stack+0x2ed>
 7c0:	46 01       	movw	r8, r12
 7c2:	56 01       	movw	r10, r12
 7c4:	19 89       	ldd	r17, Y+17	; 0x11
 7c6:	09 c0       	rjmp	.+18     	; 0x7da <__stack+0x2db>
 7c8:	f5 01       	movw	r30, r10
 7ca:	81 91       	ld	r24, Z+
 7cc:	5f 01       	movw	r10, r30
 7ce:	b1 01       	movw	r22, r2
 7d0:	99 27       	eor	r25, r25
 7d2:	87 fd       	sbrc	r24, 7
 7d4:	90 95       	com	r25
 7d6:	0e 94 a1 04 	call	0x942	; 0x942 <fputc>
 7da:	11 50       	subi	r17, 0x01	; 1
 7dc:	a8 f7       	brcc	.-22     	; 0x7c8 <__stack+0x2c9>
 7de:	64 01       	movw	r12, r8
 7e0:	f9 89       	ldd	r31, Y+17	; 0x11
 7e2:	cf 0e       	add	r12, r31
 7e4:	d1 1c       	adc	r13, r1
 7e6:	2f ef       	ldi	r18, 0xFF	; 255
 7e8:	29 8b       	std	Y+17, r18	; 0x11
 7ea:	2c c0       	rjmp	.+88     	; 0x844 <__stack+0x345>
 7ec:	3a 89       	ldd	r19, Y+18	; 0x12
 7ee:	33 35       	cpi	r19, 0x53	; 83
 7f0:	19 f0       	breq	.+6      	; 0x7f8 <__stack+0x2f9>
 7f2:	0f 85       	ldd	r16, Y+15	; 0x0f
 7f4:	18 89       	ldd	r17, Y+16	; 0x10
 7f6:	1f c0       	rjmp	.+62     	; 0x836 <__stack+0x337>
 7f8:	46 01       	movw	r8, r12
 7fa:	86 01       	movw	r16, r12
 7fc:	b9 88       	ldd	r11, Y+17	; 0x11
 7fe:	08 c0       	rjmp	.+16     	; 0x810 <__stack+0x311>
 800:	f8 01       	movw	r30, r16
 802:	84 91       	lpm	r24, Z
 804:	b1 01       	movw	r22, r2
 806:	99 27       	eor	r25, r25
 808:	0e 94 a1 04 	call	0x942	; 0x942 <fputc>
 80c:	0f 5f       	subi	r16, 0xFF	; 255
 80e:	1f 4f       	sbci	r17, 0xFF	; 255
 810:	ba 94       	dec	r11
 812:	ff ef       	ldi	r31, 0xFF	; 255
 814:	bf 16       	cp	r11, r31
 816:	a1 f7       	brne	.-24     	; 0x800 <__stack+0x301>
 818:	64 01       	movw	r12, r8
 81a:	29 89       	ldd	r18, Y+17	; 0x11
 81c:	c2 0e       	add	r12, r18
 81e:	d1 1c       	adc	r13, r1
 820:	f9 8b       	std	Y+17, r31	; 0x11
 822:	10 c0       	rjmp	.+32     	; 0x844 <__stack+0x345>
 824:	f8 01       	movw	r30, r16
 826:	82 91       	ld	r24, -Z
 828:	8f 01       	movw	r16, r30
 82a:	b1 01       	movw	r22, r2
 82c:	99 27       	eor	r25, r25
 82e:	87 fd       	sbrc	r24, 7
 830:	90 95       	com	r25
 832:	0e 94 a1 04 	call	0x942	; 0x942 <fputc>
 836:	ce 01       	movw	r24, r28
 838:	01 96       	adiw	r24, 0x01	; 1
 83a:	08 17       	cp	r16, r24
 83c:	19 07       	cpc	r17, r25
 83e:	91 f7       	brne	.-28     	; 0x824 <__stack+0x325>
 840:	18 8b       	std	Y+16, r17	; 0x10
 842:	0f 87       	std	Y+15, r16	; 0x0f
 844:	67 28       	or	r6, r7
 846:	b1 f0       	breq	.+44     	; 0x874 <__stack+0x375>
 848:	8e 85       	ldd	r24, Y+14	; 0x0e
 84a:	06 c0       	rjmp	.+12     	; 0x858 <__stack+0x359>
 84c:	b1 01       	movw	r22, r2
 84e:	80 e2       	ldi	r24, 0x20	; 32
 850:	90 e0       	ldi	r25, 0x00	; 0
 852:	0e 94 a1 04 	call	0x942	; 0x942 <fputc>
 856:	81 2f       	mov	r24, r17
 858:	18 2f       	mov	r17, r24
 85a:	11 50       	subi	r17, 0x01	; 1
 85c:	18 16       	cp	r1, r24
 85e:	b4 f3       	brlt	.-20     	; 0x84c <__stack+0x34d>
 860:	1e 87       	std	Y+14, r17	; 0x0e
 862:	08 c0       	rjmp	.+16     	; 0x874 <__stack+0x375>
 864:	b1 01       	movw	r22, r2
 866:	fa 89       	ldd	r31, Y+18	; 0x12
 868:	8f 2f       	mov	r24, r31
 86a:	99 27       	eor	r25, r25
 86c:	87 fd       	sbrc	r24, 7
 86e:	90 95       	com	r25
 870:	0e 94 a1 04 	call	0x942	; 0x942 <fputc>
 874:	aa 24       	eor	r10, r10
 876:	bb 24       	eor	r11, r11
 878:	13 c0       	rjmp	.+38     	; 0x8a0 <__stack+0x3a1>
 87a:	2a 89       	ldd	r18, Y+18	; 0x12
 87c:	25 32       	cpi	r18, 0x25	; 37
 87e:	41 f4       	brne	.+16     	; 0x890 <__stack+0x391>
 880:	3a e0       	ldi	r19, 0x0A	; 10
 882:	39 8b       	std	Y+17, r19	; 0x11
 884:	1e 86       	std	Y+14, r1	; 0x0e
 886:	1d 86       	std	Y+13, r1	; 0x0d
 888:	81 e0       	ldi	r24, 0x01	; 1
 88a:	a8 2e       	mov	r10, r24
 88c:	b1 2c       	mov	r11, r1
 88e:	08 c0       	rjmp	.+16     	; 0x8a0 <__stack+0x3a1>
 890:	b1 01       	movw	r22, r2
 892:	ea 89       	ldd	r30, Y+18	; 0x12
 894:	8e 2f       	mov	r24, r30
 896:	99 27       	eor	r25, r25
 898:	87 fd       	sbrc	r24, 7
 89a:	90 95       	com	r25
 89c:	0e 94 a1 04 	call	0x942	; 0x942 <fputc>
 8a0:	2b 89       	ldd	r18, Y+19	; 0x13
 8a2:	3c 89       	ldd	r19, Y+20	; 0x14
 8a4:	2f 5f       	subi	r18, 0xFF	; 255
 8a6:	3f 4f       	sbci	r19, 0xFF	; 255
 8a8:	3c 8b       	std	Y+20, r19	; 0x14
 8aa:	2b 8b       	std	Y+19, r18	; 0x13
 8ac:	f1 01       	movw	r30, r2
 8ae:	83 81       	ldd	r24, Z+3	; 0x03
 8b0:	83 ff       	sbrs	r24, 3
 8b2:	04 c0       	rjmp	.+8      	; 0x8bc <__stack+0x3bd>
 8b4:	eb 89       	ldd	r30, Y+19	; 0x13
 8b6:	fc 89       	ldd	r31, Y+20	; 0x14
 8b8:	f4 91       	lpm	r31, Z
 8ba:	03 c0       	rjmp	.+6      	; 0x8c2 <__stack+0x3c3>
 8bc:	eb 89       	ldd	r30, Y+19	; 0x13
 8be:	fc 89       	ldd	r31, Y+20	; 0x14
 8c0:	f0 81       	ld	r31, Z
 8c2:	fa 8b       	std	Y+18, r31	; 0x12
 8c4:	2a 89       	ldd	r18, Y+18	; 0x12
 8c6:	22 23       	and	r18, r18
 8c8:	09 f0       	breq	.+2      	; 0x8cc <__stack+0x3cd>
 8ca:	7e cd       	rjmp	.-1284   	; 0x3c8 <vfprintf+0x5a>
 8cc:	f1 01       	movw	r30, r2
 8ce:	86 81       	ldd	r24, Z+6	; 0x06
 8d0:	97 81       	ldd	r25, Z+7	; 0x07
 8d2:	64 96       	adiw	r28, 0x14	; 20
 8d4:	0f b6       	in	r0, 0x3f	; 63
 8d6:	f8 94       	cli
 8d8:	de bf       	out	0x3e, r29	; 62
 8da:	0f be       	out	0x3f, r0	; 63
 8dc:	cd bf       	out	0x3d, r28	; 61
 8de:	df 91       	pop	r29
 8e0:	cf 91       	pop	r28
 8e2:	1f 91       	pop	r17
 8e4:	0f 91       	pop	r16
 8e6:	ff 90       	pop	r15
 8e8:	ef 90       	pop	r14
 8ea:	df 90       	pop	r13
 8ec:	cf 90       	pop	r12
 8ee:	bf 90       	pop	r11
 8f0:	af 90       	pop	r10
 8f2:	9f 90       	pop	r9
 8f4:	8f 90       	pop	r8
 8f6:	7f 90       	pop	r7
 8f8:	6f 90       	pop	r6
 8fa:	5f 90       	pop	r5
 8fc:	4f 90       	pop	r4
 8fe:	3f 90       	pop	r3
 900:	2f 90       	pop	r2
 902:	08 95       	ret

00000904 <strlen_P>:
 904:	fc 01       	movw	r30, r24
 906:	05 90       	lpm	r0, Z+
 908:	00 20       	and	r0, r0
 90a:	e9 f7       	brne	.-6      	; 0x906 <strlen_P+0x2>
 90c:	80 95       	com	r24
 90e:	90 95       	com	r25
 910:	8e 0f       	add	r24, r30
 912:	9f 1f       	adc	r25, r31
 914:	08 95       	ret

00000916 <strnlen_P>:
 916:	fc 01       	movw	r30, r24
 918:	05 90       	lpm	r0, Z+
 91a:	61 50       	subi	r22, 0x01	; 1
 91c:	70 40       	sbci	r23, 0x00	; 0
 91e:	01 10       	cpse	r0, r1
 920:	d8 f7       	brcc	.-10     	; 0x918 <strnlen_P+0x2>
 922:	80 95       	com	r24
 924:	90 95       	com	r25
 926:	8e 0f       	add	r24, r30
 928:	9f 1f       	adc	r25, r31
 92a:	08 95       	ret

0000092c <strnlen>:
 92c:	fc 01       	movw	r30, r24
 92e:	61 50       	subi	r22, 0x01	; 1
 930:	70 40       	sbci	r23, 0x00	; 0
 932:	01 90       	ld	r0, Z+
 934:	01 10       	cpse	r0, r1
 936:	d8 f7       	brcc	.-10     	; 0x92e <strnlen+0x2>
 938:	80 95       	com	r24
 93a:	90 95       	com	r25
 93c:	8e 0f       	add	r24, r30
 93e:	9f 1f       	adc	r25, r31
 940:	08 95       	ret

00000942 <fputc>:
 942:	0f 93       	push	r16
 944:	1f 93       	push	r17
 946:	cf 93       	push	r28
 948:	df 93       	push	r29
 94a:	8c 01       	movw	r16, r24
 94c:	eb 01       	movw	r28, r22
 94e:	8b 81       	ldd	r24, Y+3	; 0x03
 950:	99 27       	eor	r25, r25
 952:	81 ff       	sbrs	r24, 1
 954:	1b c0       	rjmp	.+54     	; 0x98c <fputc+0x4a>
 956:	82 ff       	sbrs	r24, 2
 958:	0d c0       	rjmp	.+26     	; 0x974 <fputc+0x32>
 95a:	2e 81       	ldd	r18, Y+6	; 0x06
 95c:	3f 81       	ldd	r19, Y+7	; 0x07
 95e:	8c 81       	ldd	r24, Y+4	; 0x04
 960:	9d 81       	ldd	r25, Y+5	; 0x05
 962:	28 17       	cp	r18, r24
 964:	39 07       	cpc	r19, r25
 966:	64 f4       	brge	.+24     	; 0x980 <fputc+0x3e>
 968:	e8 81       	ld	r30, Y
 96a:	f9 81       	ldd	r31, Y+1	; 0x01
 96c:	01 93       	st	Z+, r16
 96e:	f9 83       	std	Y+1, r31	; 0x01
 970:	e8 83       	st	Y, r30
 972:	06 c0       	rjmp	.+12     	; 0x980 <fputc+0x3e>
 974:	e8 85       	ldd	r30, Y+8	; 0x08
 976:	f9 85       	ldd	r31, Y+9	; 0x09
 978:	80 2f       	mov	r24, r16
 97a:	09 95       	icall
 97c:	89 2b       	or	r24, r25
 97e:	31 f4       	brne	.+12     	; 0x98c <fputc+0x4a>
 980:	8e 81       	ldd	r24, Y+6	; 0x06
 982:	9f 81       	ldd	r25, Y+7	; 0x07
 984:	01 96       	adiw	r24, 0x01	; 1
 986:	9f 83       	std	Y+7, r25	; 0x07
 988:	8e 83       	std	Y+6, r24	; 0x06
 98a:	02 c0       	rjmp	.+4      	; 0x990 <fputc+0x4e>
 98c:	0f ef       	ldi	r16, 0xFF	; 255
 98e:	1f ef       	ldi	r17, 0xFF	; 255
 990:	c8 01       	movw	r24, r16
 992:	df 91       	pop	r29
 994:	cf 91       	pop	r28
 996:	1f 91       	pop	r17
 998:	0f 91       	pop	r16
 99a:	08 95       	ret

0000099c <__udivmodsi4>:
 99c:	a1 e2       	ldi	r26, 0x21	; 33
 99e:	1a 2e       	mov	r1, r26
 9a0:	aa 1b       	sub	r26, r26
 9a2:	bb 1b       	sub	r27, r27
 9a4:	fd 01       	movw	r30, r26
 9a6:	0d c0       	rjmp	.+26     	; 0x9c2 <__udivmodsi4_ep>

000009a8 <__udivmodsi4_loop>:
 9a8:	aa 1f       	adc	r26, r26
 9aa:	bb 1f       	adc	r27, r27
 9ac:	ee 1f       	adc	r30, r30
 9ae:	ff 1f       	adc	r31, r31
 9b0:	a2 17       	cp	r26, r18
 9b2:	b3 07       	cpc	r27, r19
 9b4:	e4 07       	cpc	r30, r20
 9b6:	f5 07       	cpc	r31, r21
 9b8:	20 f0       	brcs	.+8      	; 0x9c2 <__udivmodsi4_ep>
 9ba:	a2 1b       	sub	r26, r18
 9bc:	b3 0b       	sbc	r27, r19
 9be:	e4 0b       	sbc	r30, r20
 9c0:	f5 0b       	sbc	r31, r21

000009c2 <__udivmodsi4_ep>:
 9c2:	66 1f       	adc	r22, r22
 9c4:	77 1f       	adc	r23, r23
 9c6:	88 1f       	adc	r24, r24
 9c8:	99 1f       	adc	r25, r25
 9ca:	1a 94       	dec	r1
 9cc:	69 f7       	brne	.-38     	; 0x9a8 <__udivmodsi4_loop>
 9ce:	60 95       	com	r22
 9d0:	70 95       	com	r23
 9d2:	80 95       	com	r24
 9d4:	90 95       	com	r25
 9d6:	9b 01       	movw	r18, r22
 9d8:	ac 01       	movw	r20, r24
 9da:	bd 01       	movw	r22, r26
 9dc:	cf 01       	movw	r24, r30
 9de:	08 95       	ret

000009e0 <_exit>:
 9e0:	ff cf       	rjmp	.-2      	; 0x9e0 <_exit>
